target datalayout = "e-m:e-p270:32:32-p271:32:32-p272:64:64-i64:64-i128:128-f80:128-n8:16:32:64-S128"
target triple = "x86_64-pc-linux-gnu"

%struct.mbedtls_cipher_context_t = type { ptr, i32, i32, ptr, ptr, [16 x i8], i64, [16 x i8], i64, ptr, ptr }

@.str.6 = private unnamed_addr constant [23 x i8] c"  %s CMAC subkey #%d: \00", align 1
@.str.7 = private unnamed_addr constant [23 x i8] c"test execution failed\0A\00", align 1
@.str.8 = private unnamed_addr constant [9 x i8] c"skipped\0A\00", align 1
@.str.9 = private unnamed_addr constant [8 x i8] c"failed\0A\00", align 1
@.str.10 = private unnamed_addr constant [8 x i8] c"passed\0A\00", align 1

; Function Attrs: nounwind uwtable
define internal i32 @cmac_test_subkeys(i32 noundef %0, ptr noundef %1, ptr noundef %2, i32 noundef %3, ptr noundef %4, i32 noundef %5, i32 noundef %6, i32 noundef %7) #0 {
  %9 = alloca i32, align 4
  %10 = alloca i32, align 4
  %11 = alloca ptr, align 8
  %12 = alloca ptr, align 8
  %13 = alloca i32, align 4
  %14 = alloca ptr, align 8
  %15 = alloca i32, align 4
  %16 = alloca i32, align 4
  %17 = alloca i32, align 4
  %18 = alloca i32, align 4
  %19 = alloca i32, align 4
  %20 = alloca %struct.mbedtls_cipher_context_t, align 8
  %21 = alloca ptr, align 8
  %22 = alloca [16 x i8], align 16
  %23 = alloca [16 x i8], align 16
  %24 = alloca i32, align 4
  store i32 %0, ptr %10, align 4, !tbaa !17
  store ptr %1, ptr %11, align 8, !tbaa !8
  store ptr %2, ptr %12, align 8, !tbaa !8
  store i32 %3, ptr %13, align 4, !tbaa !17
  store ptr %4, ptr %14, align 8, !tbaa !8
  store i32 %5, ptr %15, align 4, !tbaa !17
  store i32 %6, ptr %16, align 4, !tbaa !17
  store i32 %7, ptr %17, align 4, !tbaa !17
  call void @llvm.lifetime.start.p0(i64 4, ptr %18) #11
  call void @llvm.lifetime.start.p0(i64 4, ptr %19) #11
  store i32 0, ptr %19, align 4, !tbaa !17
  call void @llvm.lifetime.start.p0(i64 96, ptr %20) #11
  call void @llvm.lifetime.start.p0(i64 8, ptr %21) #11
  call void @llvm.lifetime.start.p0(i64 16, ptr %22) #11
  call void @llvm.lifetime.start.p0(i64 16, ptr %23) #11
  %25 = load i32, ptr %15, align 4, !tbaa !17
  %26 = call ptr @mbedtls_cipher_info_from_type(i32 noundef %25)
  store ptr %26, ptr %21, align 8, !tbaa !20
  %27 = load ptr, ptr %21, align 8, !tbaa !20
  %28 = icmp eq ptr %27, null
  br i1 %28, label %29, label %30

29:                                               ; preds = %8
  store i32 -24704, ptr %9, align 4
  store i32 1, ptr %24, align 4
  br label %128

30:                                               ; preds = %8
  store i32 0, ptr %18, align 4, !tbaa !17
  br label %31

31:                                               ; preds = %121, %30
  %32 = load i32, ptr %18, align 4, !tbaa !17
  %33 = load i32, ptr %17, align 4, !tbaa !17
  %34 = icmp slt i32 %32, %33
  br i1 %34, label %35, label %124

35:                                               ; preds = %31
  %36 = load i32, ptr %10, align 4, !tbaa !17
  %37 = icmp ne i32 %36, 0
  br i1 %37, label %38, label %43

38:                                               ; preds = %35
  %39 = load ptr, ptr %11, align 8, !tbaa !8
  %40 = load i32, ptr %18, align 4, !tbaa !17
  %41 = add nsw i32 %40, 1
  %42 = call i32 (ptr, ...) @printf(ptr noundef @.str.6, ptr noundef %39, i32 noundef %41)
  br label %43

43:                                               ; preds = %38, %35
  call void @mbedtls_cipher_init(ptr noundef %20)
  %44 = load ptr, ptr %21, align 8, !tbaa !20
  %45 = call i32 @mbedtls_cipher_setup(ptr noundef %20, ptr noundef %44)
  store i32 %45, ptr %19, align 4, !tbaa !17
  %46 = icmp ne i32 %45, 0
  br i1 %46, label %47, label %53

47:                                               ; preds = %43
  %48 = load i32, ptr %10, align 4, !tbaa !17
  %49 = icmp ne i32 %48, 0
  br i1 %49, label %50, label %52

50:                                               ; preds = %47
  %51 = call i32 (ptr, ...) @printf(ptr noundef @.str.7)
  br label %52

52:                                               ; preds = %50, %47
  br label %125

53:                                               ; preds = %43
  %54 = load ptr, ptr %12, align 8, !tbaa !8
  %55 = load i32, ptr %13, align 4, !tbaa !17
  %56 = call i32 @mbedtls_cipher_setkey(ptr noundef %20, ptr noundef %54, i32 noundef %55, i32 noundef 1)
  store i32 %56, ptr %19, align 4, !tbaa !17
  %57 = icmp ne i32 %56, 0
  br i1 %57, label %58, label %79

58:                                               ; preds = %53
  %59 = load i32, ptr %19, align 4, !tbaa !17
  %60 = icmp eq i32 %59, -114
  br i1 %60, label %64, label %61

61:                                               ; preds = %58
  %62 = load i32, ptr %19, align 4, !tbaa !17
  %63 = icmp eq i32 %62, -24704
  br i1 %63, label %64, label %73

64:                                               ; preds = %61, %58
  %65 = load i32, ptr %15, align 4, !tbaa !17
  %66 = icmp eq i32 %65, 3
  br i1 %66, label %67, label %73

67:                                               ; preds = %64
  %68 = load i32, ptr %10, align 4, !tbaa !17
  %69 = icmp ne i32 %68, 0
  br i1 %69, label %70, label %72

70:                                               ; preds = %67
  %71 = call i32 (ptr, ...) @printf(ptr noundef @.str.8)
  br label %72

72:                                               ; preds = %70, %67
  br label %120

73:                                               ; preds = %64, %61
  %74 = load i32, ptr %10, align 4, !tbaa !17
  %75 = icmp ne i32 %74, 0
  br i1 %75, label %76, label %78

76:                                               ; preds = %73
  %77 = call i32 (ptr, ...) @printf(ptr noundef @.str.7)
  br label %78

78:                                               ; preds = %76, %73
  br label %125

79:                                               ; preds = %53
  %80 = getelementptr inbounds [16 x i8], ptr %22, i64 0, i64 0
  %81 = getelementptr inbounds [16 x i8], ptr %23, i64 0, i64 0
  %82 = call i32 @cmac_generate_subkeys(ptr noundef %20, ptr noundef %80, ptr noundef %81)
  store i32 %82, ptr %19, align 4, !tbaa !17
  %83 = load i32, ptr %19, align 4, !tbaa !17
  %84 = icmp ne i32 %83, 0
  br i1 %84, label %85, label %91

85:                                               ; preds = %79
  %86 = load i32, ptr %10, align 4, !tbaa !17
  %87 = icmp ne i32 %86, 0
  br i1 %87, label %88, label %90

88:                                               ; preds = %85
  %89 = call i32 (ptr, ...) @printf(ptr noundef @.str.9)
  br label %90

90:                                               ; preds = %88, %85
  br label %125

91:                                               ; preds = %79
  %92 = getelementptr inbounds [16 x i8], ptr %22, i64 0, i64 0
  %93 = load ptr, ptr %14, align 8, !tbaa !8
  %94 = load i32, ptr %16, align 4, !tbaa !17
  %95 = sext i32 %94 to i64
  %96 = call i32 @memcmp(ptr noundef %92, ptr noundef %93, i64 noundef %95) #13
  store i32 %96, ptr %19, align 4, !tbaa !17
  %97 = icmp ne i32 %96, 0
  br i1 %97, label %108, label %98

98:                                               ; preds = %91
  %99 = getelementptr inbounds [16 x i8], ptr %23, i64 0, i64 0
  %100 = load ptr, ptr %14, align 8, !tbaa !8
  %101 = load i32, ptr %16, align 4, !tbaa !17
  %102 = sext i32 %101 to i64
  %103 = getelementptr inbounds i8, ptr %100, i64 %102
  %104 = load i32, ptr %16, align 4, !tbaa !17
  %105 = sext i32 %104 to i64
  %106 = call i32 @memcmp(ptr noundef %99, ptr noundef %103, i64 noundef %105) #13
  store i32 %106, ptr %19, align 4, !tbaa !17
  %107 = icmp ne i32 %106, 0
  br i1 %107, label %108, label %114

108:                                              ; preds = %98, %91
  %109 = load i32, ptr %10, align 4, !tbaa !17
  %110 = icmp ne i32 %109, 0
  br i1 %110, label %111, label %113

111:                                              ; preds = %108
  %112 = call i32 (ptr, ...) @printf(ptr noundef @.str.9)
  br label %113

113:                                              ; preds = %111, %108
  br label %125

114:                                              ; preds = %98
  %115 = load i32, ptr %10, align 4, !tbaa !17
  %116 = icmp ne i32 %115, 0
  br i1 %116, label %117, label %119

117:                                              ; preds = %114
  %118 = call i32 (ptr, ...) @printf(ptr noundef @.str.10)
  br label %119

119:                                              ; preds = %117, %114
  br label %120

120:                                              ; preds = %119, %72
  call void @mbedtls_cipher_free(ptr noundef %20)
  br label %121

121:                                              ; preds = %120
  %122 = load i32, ptr %18, align 4, !tbaa !17
  %123 = add nsw i32 %122, 1
  store i32 %123, ptr %18, align 4, !tbaa !17
  br label %31, !llvm.loop !31

124:                                              ; preds = %31
  store i32 0, ptr %19, align 4, !tbaa !17
  br label %126

125:                                              ; preds = %113, %90, %78, %52
  call void @mbedtls_cipher_free(ptr noundef %20)
  br label %126

126:                                              ; preds = %125, %124
  %127 = load i32, ptr %19, align 4, !tbaa !17
  store i32 %127, ptr %9, align 4
  store i32 1, ptr %24, align 4
  br label %128

128:                                              ; preds = %126, %29
  call void @llvm.lifetime.end.p0(i64 16, ptr %23) #11
  call void @llvm.lifetime.end.p0(i64 16, ptr %22) #11
  call void @llvm.lifetime.end.p0(i64 8, ptr %21) #11
  call void @llvm.lifetime.end.p0(i64 96, ptr %20) #11
  call void @llvm.lifetime.end.p0(i64 4, ptr %19) #11
  call void @llvm.lifetime.end.p0(i64 4, ptr %18) #11
  %129 = load i32, ptr %9, align 4
  ret i32 %129
}