; Function Attrs: nounwind uwtable
define internal fastcc i32 @cmac_test_subkeys(i32 noundef %0, ptr noundef %1, ptr noundef %2, i32 noundef range(i32 128, 257) %3, ptr noundef readonly captures(none) %4, i32 noundef range(i32 2, 37) %5, i32 noundef range(i32 8, 17) %6) unnamed_addr #0 {
  %8 = alloca %struct.mbedtls_cipher_context_t, align 8
  %9 = alloca [16 x i8], align 16
  %10 = alloca [16 x i8], align 16
  call void @llvm.lifetime.start.p0(i64 96, ptr nonnull %8) #13
  call void @llvm.lifetime.start.p0(i64 16, ptr nonnull %9) #13
  call void @llvm.lifetime.start.p0(i64 16, ptr nonnull %10) #13
  %11 = tail call ptr @mbedtls_cipher_info_from_type(i32 noundef %5) #13
  %12 = icmp eq ptr %11, null
  br i1 %12, label %.loopexit, label %.preheader

.preheader:                                       ; preds = %7
  %.not = icmp eq i32 %0, 0
  %13 = icmp eq i32 %5, 3
  %14 = zext nneg i32 %6 to i64
  %15 = getelementptr inbounds nuw i8, ptr %4, i64 %14
  br label %16

16:                                               ; preds = %.preheader, %39
  %.03159 = phi i32 [ 0, %.preheader ], [ %40, %39 ]
  br i1 %.not, label %20, label %17

17:                                               ; preds = %16
  %18 = add nuw nsw i32 %.03159, 1
  %19 = call i32 (ptr, ...) @printf(ptr noundef nonnull dereferenceable(1) @.str.6, ptr noundef %1, i32 noundef %18)
  br label %20

20:                                               ; preds = %17, %16
  call void @mbedtls_cipher_init(ptr noundef nonnull %8) #13
  %21 = call i32 @mbedtls_cipher_setup(ptr noundef nonnull %8, ptr noundef nonnull %11) #13
  %.not38 = icmp eq i32 %21, 0
  br i1 %.not38, label %23, label %22

22:                                               ; preds = %20
  br i1 %.not, label %41, label %.sink.split80

23:                                               ; preds = %20
  %24 = call i32 @mbedtls_cipher_setkey(ptr noundef nonnull %8, ptr noundef %2, i32 noundef %3, i32 noundef 1) #13
  %.not39 = icmp eq i32 %24, 0
  br i1 %.not39, label %30, label %25

25:                                               ; preds = %23
  %26 = icmp eq i32 %24, -114
  %27 = icmp eq i32 %24, -24704
  %or.cond = or i1 %26, %27
  %or.cond3 = and i1 %13, %or.cond
  br i1 %or.cond3, label %28, label %29

28:                                               ; preds = %25
  br i1 %.not, label %39, label %.sink.split

29:                                               ; preds = %25
  br i1 %.not, label %41, label %.sink.split80

30:                                               ; preds = %23
  %31 = call fastcc i32 @cmac_generate_subkeys(ptr noundef %8, ptr noundef %9, ptr noundef %10)
  %.not40 = icmp eq i32 %31, 0
  br i1 %.not40, label %33, label %32

32:                                               ; preds = %30
  br i1 %.not, label %41, label %.sink.split80

33:                                               ; preds = %30
  %34 = call i32 @memcmp(ptr noundef nonnull dereferenceable(1) %9, ptr noundef nonnull dereferenceable(1) %4, i64 noundef %14) #15
  %.not41 = icmp eq i32 %34, 0
  br i1 %.not41, label %35, label %37

35:                                               ; preds = %33
  %36 = call i32 @memcmp(ptr noundef nonnull dereferenceable(1) %10, ptr noundef nonnull dereferenceable(1) %15, i64 noundef %14) #15
  %.not42 = icmp eq i32 %36, 0
  br i1 %.not42, label %38, label %37

37:                                               ; preds = %35, %33
  %.1 = phi i32 [ %34, %33 ], [ %36, %35 ]
  br i1 %.not, label %41, label %.sink.split80

38:                                               ; preds = %35
  br i1 %.not, label %39, label %.sink.split

.sink.split:                                      ; preds = %38, %28
  %str.sink = phi ptr [ @str.9, %28 ], [ @str.10, %38 ]
  %puts = call i32 @puts(ptr nonnull dereferenceable(1) %str.sink)
  br label %39

39:                                               ; preds = %.sink.split, %38, %28
  call void @mbedtls_cipher_free(ptr noundef nonnull %8) #13
  %40 = add nuw nsw i32 %.03159, 1
  %exitcond.not = icmp eq i32 %40, 4
  br i1 %exitcond.not, label %.loopexit, label %16, !llvm.loop !25

.sink.split80:                                    ; preds = %37, %32, %29, %22
  %str.1.sink = phi ptr [ @str.5, %22 ], [ @str.5, %29 ], [ @str.11, %32 ], [ @str.11, %37 ]
  %.030.ph = phi i32 [ %21, %22 ], [ %24, %29 ], [ %31, %32 ], [ %.1, %37 ]
  %puts43 = call i32 @puts(ptr nonnull dereferenceable(1) %str.1.sink)
  br label %41

41:                                               ; preds = %.sink.split80, %37, %32, %29, %22
  %.030 = phi i32 [ %21, %22 ], [ %24, %29 ], [ %31, %32 ], [ %.1, %37 ], [ %.030.ph, %.sink.split80 ]
  call void @mbedtls_cipher_free(ptr noundef nonnull %8) #13
  br label %.loopexit

.loopexit:                                        ; preds = %39, %41, %7
  %.0 = phi i32 [ -24704, %7 ], [ %.030, %41 ], [ 0, %39 ]
  call void @llvm.lifetime.end.p0(i64 16, ptr nonnull %10) #13
  call void @llvm.lifetime.end.p0(i64 16, ptr nonnull %9) #13
  call void @llvm.lifetime.end.p0(i64 96, ptr nonnull %8) #13
  ret i32 %.0
}